target datalayout = "e-m:e-p270:32:32-p271:32:32-p272:64:64-i64:64-i128:128-f80:128-n8:16:32:64-S128"
target triple = "x86_64-pc-linux-gnu"

; Function Attrs: alwaysinline nounwind willreturn memory(none) uwtable
define internal i32 @av_clip_uintp2_c(i32 noundef %0, i32 noundef %1) #4 {
  %3 = alloca i32, align 4
  %4 = alloca i32, align 4
  %5 = alloca i32, align 4
  store i32 %0, ptr %4, align 4, !tbaa !13
  store i32 %1, ptr %5, align 4, !tbaa !13
  %6 = load i32, ptr %4, align 4, !tbaa !13
  %7 = load i32, ptr %5, align 4, !tbaa !13
  %8 = shl i32 1, %7
  %9 = sub i32 %8, 1
  %10 = xor i32 %9, -1
  %11 = and i32 %6, %10
  %12 = icmp ne i32 %11, 0
  br i1 %12, label %13, label %21

13:                                               ; preds = %2
  %14 = load i32, ptr %4, align 4, !tbaa !13
  %15 = xor i32 %14, -1
  %16 = ashr i32 %15, 31
  %17 = load i32, ptr %5, align 4, !tbaa !13
  %18 = shl i32 1, %17
  %19 = sub i32 %18, 1
  %20 = and i32 %16, %19
  store i32 %20, ptr %3, align 4
  br label %23

21:                                               ; preds = %2
  %22 = load i32, ptr %4, align 4, !tbaa !13
  store i32 %22, ptr %3, align 4
  br label %23

23:                                               ; preds = %21, %13
  %24 = load i32, ptr %3, align 4
  ret i32 %24
}

; Function Attrs: nounwind uwtable
define internal void @put_signed_rect_clamped_10bit_c(ptr noundef %0, i32 noundef %1, ptr noundef %2, i32 noundef %3, i32 noundef %4, i32 noundef %5) #1 {
  %7 = alloca ptr, align 8
  %8 = alloca i32, align 4
  %9 = alloca ptr, align 8
  %10 = alloca i32, align 4
  %11 = alloca i32, align 4
  %12 = alloca i32, align 4
  %13 = alloca i32, align 4
  %14 = alloca i32, align 4
  %15 = alloca ptr, align 8
  %16 = alloca ptr, align 8
  store ptr %0, ptr %7, align 8, !tbaa !11
  store i32 %1, ptr %8, align 4, !tbaa !13
  store ptr %2, ptr %9, align 8, !tbaa !11
  store i32 %3, ptr %10, align 4, !tbaa !13
  store i32 %4, ptr %11, align 4, !tbaa !13
  store i32 %5, ptr %12, align 4, !tbaa !13
  call void @llvm.lifetime.start.p0(i64 4, ptr %13) #5
  call void @llvm.lifetime.start.p0(i64 4, ptr %14) #5
  call void @llvm.lifetime.start.p0(i64 8, ptr %15) #5
  %17 = load ptr, ptr %7, align 8, !tbaa !11
  store ptr %17, ptr %15, align 8, !tbaa !21
  call void @llvm.lifetime.start.p0(i64 8, ptr %16) #5
  %18 = load ptr, ptr %9, align 8, !tbaa !11
  store ptr %18, ptr %16, align 8, !tbaa !29
  store i32 0, ptr %14, align 4, !tbaa !13
  br label %19

19:                                               ; preds = %97, %6
  %20 = load i32, ptr %14, align 4, !tbaa !13
  %21 = load i32, ptr %12, align 4, !tbaa !13
  %22 = icmp slt i32 %20, %21
  br i1 %22, label %23, label %100

23:                                               ; preds = %19
  store i32 0, ptr %13, align 4, !tbaa !13
  br label %24

24:                                               ; preds = %83, %23
  %25 = load i32, ptr %13, align 4, !tbaa !13
  %26 = load i32, ptr %11, align 4, !tbaa !13
  %27 = icmp slt i32 %25, %26
  br i1 %27, label %28, label %86

28:                                               ; preds = %24
  %29 = load ptr, ptr %16, align 8, !tbaa !29
  %30 = load i32, ptr %13, align 4, !tbaa !13
  %31 = sext i32 %30 to i64
  %32 = getelementptr inbounds i32, ptr %29, i64 %31
  %33 = load i32, ptr %32, align 4, !tbaa !13
  %34 = add i32 %33, 512
  %35 = call i32 @av_clip_uintp2_c(i32 noundef %34, i32 noundef 10) #6
  %36 = trunc i32 %35 to i16
  %37 = load ptr, ptr %15, align 8, !tbaa !21
  %38 = load i32, ptr %13, align 4, !tbaa !13
  %39 = sext i32 %38 to i64
  %40 = getelementptr inbounds i16, ptr %37, i64 %39
  store i16 %36, ptr %40, align 2, !tbaa !23
  %41 = load ptr, ptr %16, align 8, !tbaa !29
  %42 = load i32, ptr %13, align 4, !tbaa !13
  %43 = add nsw i32 %42, 1
  %44 = sext i32 %43 to i64
  %45 = getelementptr inbounds i32, ptr %41, i64 %44
  %46 = load i32, ptr %45, align 4, !tbaa !13
  %47 = add i32 %46, 512
  %48 = call i32 @av_clip_uintp2_c(i32 noundef %47, i32 noundef 10) #6
  %49 = trunc i32 %48 to i16
  %50 = load ptr, ptr %15, align 8, !tbaa !21
  %51 = load i32, ptr %13, align 4, !tbaa !13
  %52 = add nsw i32 %51, 1
  %53 = sext i32 %52 to i64
  %54 = getelementptr inbounds i16, ptr %50, i64 %53
  store i16 %49, ptr %54, align 2, !tbaa !23
  %55 = load ptr, ptr %16, align 8, !tbaa !29
  %56 = load i32, ptr %13, align 4, !tbaa !13
  %57 = add nsw i32 %56, 2
  %58 = sext i32 %57 to i64
  %59 = getelementptr inbounds i32, ptr %55, i64 %58
  %60 = load i32, ptr %59, align 4, !tbaa !13
  %61 = add i32 %60, 512
  %62 = call i32 @av_clip_uintp2_c(i32 noundef %61, i32 noundef 10) #6
  %63 = trunc i32 %62 to i16
  %64 = load ptr, ptr %15, align 8, !tbaa !21
  %65 = load i32, ptr %13, align 4, !tbaa !13
  %66 = add nsw i32 %65, 2
  %67 = sext i32 %66 to i64
  %68 = getelementptr inbounds i16, ptr %64, i64 %67
  store i16 %63, ptr %68, align 2, !tbaa !23
  %69 = load ptr, ptr %16, align 8, !tbaa !29
  %70 = load i32, ptr %13, align 4, !tbaa !13
  %71 = add nsw i32 %70, 3
  %72 = sext i32 %71 to i64
  %73 = getelementptr inbounds i32, ptr %69, i64 %72
  %74 = load i32, ptr %73, align 4, !tbaa !13
  %75 = add i32 %74, 512
  %76 = call i32 @av_clip_uintp2_c(i32 noundef %75, i32 noundef 10) #6
  %77 = trunc i32 %76 to i16
  %78 = load ptr, ptr %15, align 8, !tbaa !21
  %79 = load i32, ptr %13, align 4, !tbaa !13
  %80 = add nsw i32 %79, 3
  %81 = sext i32 %80 to i64
  %82 = getelementptr inbounds i16, ptr %78, i64 %81
  store i16 %77, ptr %82, align 2, !tbaa !23
  br label %83

83:                                               ; preds = %28
  %84 = load i32, ptr %13, align 4, !tbaa !13
  %85 = add nsw i32 %84, 4
  store i32 %85, ptr %13, align 4, !tbaa !13
  br label %24, !llvm.loop !31

86:                                               ; preds = %24
  %87 = load i32, ptr %8, align 4, !tbaa !13
  %88 = ashr i32 %87, 1
  %89 = load ptr, ptr %15, align 8, !tbaa !21
  %90 = sext i32 %88 to i64
  %91 = getelementptr inbounds i16, ptr %89, i64 %90
  store ptr %91, ptr %15, align 8, !tbaa !21
  %92 = load i32, ptr %10, align 4, !tbaa !13
  %93 = ashr i32 %92, 2
  %94 = load ptr, ptr %16, align 8, !tbaa !29
  %95 = sext i32 %93 to i64
  %96 = getelementptr inbounds i32, ptr %94, i64 %95
  store ptr %96, ptr %16, align 8, !tbaa !29
  br label %97

97:                                               ; preds = %86
  %98 = load i32, ptr %14, align 4, !tbaa !13
  %99 = add nsw i32 %98, 1
  store i32 %99, ptr %14, align 4, !tbaa !13
  br label %19, !llvm.loop !32

100:                                              ; preds = %19
  call void @llvm.lifetime.end.p0(i64 8, ptr %16) #5
  call void @llvm.lifetime.end.p0(i64 8, ptr %15) #5
  call void @llvm.lifetime.end.p0(i64 4, ptr %14) #5
  call void @llvm.lifetime.end.p0(i64 4, ptr %13) #5
  ret void
}