; Function Attrs: nofree norecurse nosync nounwind memory(argmem: readwrite) uwtable
define internal void @put_signed_rect_clamped_10bit_c(ptr noundef writeonly captures(none) %0, i32 noundef %1, ptr noundef readonly captures(none) %2, i32 noundef %3, i32 noundef %4, i32 noundef %5) #1 {
  %7 = icmp sgt i32 %5, 0
  br i1 %7, label %.preheader.lr.ph, label %._crit_edge43

.preheader.lr.ph:                                 ; preds = %6
  %8 = icmp sgt i32 %4, 0
  %9 = ashr i32 %1, 1
  %10 = sext i32 %9 to i64
  %11 = ashr i32 %3, 2
  %12 = sext i32 %11 to i64
  br i1 %8, label %.preheader.us.preheader, label %._crit_edge43

.preheader.us.preheader:                          ; preds = %.preheader.lr.ph
  %13 = zext nneg i32 %4 to i64
  br label %.preheader.us

.preheader.us:                                    ; preds = %.preheader.us.preheader, %._crit_edge.us
  %.042.us = phi ptr [ %48, %._crit_edge.us ], [ %2, %.preheader.us.preheader ]
  %.02741.us = phi ptr [ %47, %._crit_edge.us ], [ %0, %.preheader.us.preheader ]
  %.02840.us = phi i32 [ %49, %._crit_edge.us ], [ 0, %.preheader.us.preheader ]
  br label %14

14:                                               ; preds = %.preheader.us, %14
  %indvars.iv = phi i64 [ 0, %.preheader.us ], [ %indvars.iv.next, %14 ]
  %15 = getelementptr inbounds nuw i32, ptr %.042.us, i64 %indvars.iv
  %16 = load i32, ptr %15, align 4, !tbaa !23
  %17 = add i32 %16, 512
  %18 = tail call i32 @llvm.smax.i32(i32 %17, i32 0)
  %19 = tail call i32 @llvm.umin.i32(i32 %18, i32 1023)
  %20 = trunc nuw nsw i32 %19 to i16
  %21 = getelementptr inbounds nuw i16, ptr %.02741.us, i64 %indvars.iv
  store i16 %20, ptr %21, align 2, !tbaa !17
  %22 = or disjoint i64 %indvars.iv, 1
  %23 = getelementptr inbounds nuw i32, ptr %.042.us, i64 %22
  %24 = load i32, ptr %23, align 4, !tbaa !23
  %25 = add i32 %24, 512
  %26 = tail call i32 @llvm.smax.i32(i32 %25, i32 0)
  %27 = tail call i32 @llvm.umin.i32(i32 %26, i32 1023)
  %28 = trunc nuw nsw i32 %27 to i16
  %29 = getelementptr inbounds nuw i16, ptr %.02741.us, i64 %22
  store i16 %28, ptr %29, align 2, !tbaa !17
  %30 = or disjoint i64 %indvars.iv, 2
  %31 = getelementptr inbounds nuw i32, ptr %.042.us, i64 %30
  %32 = load i32, ptr %31, align 4, !tbaa !23
  %33 = add i32 %32, 512
  %34 = tail call i32 @llvm.smax.i32(i32 %33, i32 0)
  %35 = tail call i32 @llvm.umin.i32(i32 %34, i32 1023)
  %36 = trunc nuw nsw i32 %35 to i16
  %37 = getelementptr inbounds nuw i16, ptr %.02741.us, i64 %30
  store i16 %36, ptr %37, align 2, !tbaa !17
  %38 = or disjoint i64 %indvars.iv, 3
  %39 = getelementptr inbounds nuw i32, ptr %.042.us, i64 %38
  %40 = load i32, ptr %39, align 4, !tbaa !23
  %41 = add i32 %40, 512
  %42 = tail call i32 @llvm.smax.i32(i32 %41, i32 0)
  %43 = tail call i32 @llvm.umin.i32(i32 %42, i32 1023)
  %44 = trunc nuw nsw i32 %43 to i16
  %45 = getelementptr inbounds nuw i16, ptr %.02741.us, i64 %38
  store i16 %44, ptr %45, align 2, !tbaa !17
  %indvars.iv.next = add nuw nsw i64 %indvars.iv, 4
  %46 = icmp samesign ult i64 %indvars.iv.next, %13
  br i1 %46, label %14, label %._crit_edge.us, !llvm.loop !25

._crit_edge.us:                                   ; preds = %14
  %47 = getelementptr inbounds i16, ptr %.02741.us, i64 %10
  %48 = getelementptr inbounds i32, ptr %.042.us, i64 %12
  %49 = add nuw nsw i32 %.02840.us, 1
  %exitcond.not = icmp eq i32 %49, %5
  br i1 %exitcond.not, label %._crit_edge43, label %.preheader.us, !llvm.loop !26

._crit_edge43:                                    ; preds = %._crit_edge.us, %.preheader.lr.ph, %6
  ret void
}